; Function Attrs: mustprogress uwtable
define void @_ZN3gmx19AnalysisDataStorage24startParallelDataStorageEPNS_20AbstractAnalysisDataEPNS_25AnalysisDataModuleManagerERKNS_27AnalysisDataParallelOptionsE(ptr nocapture noundef nonnull readonly align 8 dereferenceable(8) %0, ptr noundef %1, ptr noundef nonnull %2, ptr noundef nonnull align 4 dereferenceable(4) %3) local_unnamed_addr #1 align 2 {
  %5 = load i32, ptr %3, align 4
  %6 = load ptr, ptr %0, align 8
  %7 = getelementptr inbounds i8, ptr %6, i64 20
  store i32 %5, ptr %7, align 4
  tail call void @_ZN3gmx25AnalysisDataModuleManager23notifyParallelDataStartEPNS_20AbstractAnalysisDataERKNS_27AnalysisDataParallelOptionsE(ptr noundef nonnull align 8 dereferenceable(8) %2, ptr noundef %1, ptr noundef nonnull align 4 dereferenceable(4) %3)
  %8 = load ptr, ptr %0, align 8
  store ptr %1, ptr %8, align 8
  %9 = load ptr, ptr %0, align 8
  %10 = getelementptr inbounds i8, ptr %9, i64 8
  store ptr %2, ptr %10, align 8
  %11 = load ptr, ptr %0, align 8
  %12 = getelementptr inbounds i8, ptr %11, i64 16
  %13 = load i32, ptr %12, align 8
  %14 = icmp eq i32 %13, 2147483647
  br i1 %14, label %19, label %15

15:                                               ; preds = %4
  %16 = add i32 %5, 1
  %17 = add i32 %16, %13
  %18 = sext i32 %17 to i64
  tail call void @_ZN3gmx8internal23AnalysisDataStorageImpl12extendBufferEm(ptr noundef nonnull align 8 dereferenceable(92) %11, i64 noundef %18)
  br label %19

19:                                               ; preds = %15, %4
  ret void
}